target datalayout = "e-m:e-p270:32:32-p271:32:32-p272:64:64-i64:64-i128:128-f80:128-n8:16:32:64-S128"
target triple = "x86_64-pc-linux-gnu"

@justprint = internal global i32 0, align 4
@.str.23 = private unnamed_addr constant [31 x i8] c"../openssl/test/bioprinttest.c\00", align 1
@dofptest.fspecs = internal global [5 x ptr] [ptr @.str.42, ptr @.str.43, ptr @.str.44, ptr @.str.45, ptr @.str.46], align 16
@.str.47 = private unnamed_addr constant [10 x i8] c"%%%s.%d%s\00", align 1
@.str.48 = private unnamed_addr constant [7 x i8] c"%%%s%s\00", align 1
@.str.49 = private unnamed_addr constant [23 x i8] c"    /*  %d%d */ { \22%s\22\00", align 1
@.str.50 = private unnamed_addr constant [7 x i8] c", \22%s\22\00", align 1
@.str.51 = private unnamed_addr constant [25 x i8] c"fpexpected[test][sub][i]\00", align 1
@.str.52 = private unnamed_addr constant [7 x i8] c"result\00", align 1
@.str.53 = private unnamed_addr constant [39 x i8] c"test %d format=|%s| exp=|%s|, ret=|%s|\00", align 1
@.str.54 = private unnamed_addr constant [5 x i8] c" },\0A\00", align 1

; Function Attrs: nounwind uwtable
define internal i32 @dofptest(i32 noundef %0, i32 noundef %1, double noundef %2, ptr noundef %3, i32 noundef %4) #0 {
  %6 = alloca i32, align 4
  %7 = alloca i32, align 4
  %8 = alloca double, align 8
  %9 = alloca ptr, align 8
  %10 = alloca i32, align 4
  %11 = alloca [80 x i8], align 16
  %12 = alloca [80 x i8], align 16
  %13 = alloca i32, align 4
  %14 = alloca i32, align 4
  %15 = alloca ptr, align 8
  store i32 %0, ptr %6, align 4, !tbaa !4
  store i32 %1, ptr %7, align 4, !tbaa !4
  store double %2, ptr %8, align 8, !tbaa !10
  store ptr %3, ptr %9, align 8, !tbaa !32
  store i32 %4, ptr %10, align 4, !tbaa !4
  call void @llvm.lifetime.start.p0(i64 80, ptr %11) #4
  call void @llvm.lifetime.start.p0(i64 80, ptr %12) #4
  call void @llvm.lifetime.start.p0(i64 4, ptr %13) #4
  store i32 1, ptr %13, align 4, !tbaa !4
  call void @llvm.lifetime.start.p0(i64 4, ptr %14) #4
  store i32 0, ptr %14, align 4, !tbaa !4
  br label %16

16:                                               ; preds = %86, %5
  %17 = load i32, ptr %14, align 4, !tbaa !4
  %18 = icmp slt i32 %17, 5
  br i1 %18, label %19, label %89

19:                                               ; preds = %16
  call void @llvm.lifetime.start.p0(i64 8, ptr %15) #4
  %20 = load i32, ptr %14, align 4, !tbaa !4
  %21 = sext i32 %20 to i64
  %22 = getelementptr inbounds [5 x ptr], ptr @dofptest.fspecs, i64 0, i64 %21
  %23 = load ptr, ptr %22, align 8, !tbaa !32
  store ptr %23, ptr %15, align 8, !tbaa !32
  %24 = load i32, ptr %10, align 4, !tbaa !4
  %25 = icmp sge i32 %24, 0
  br i1 %25, label %26, label %32

26:                                               ; preds = %19
  %27 = getelementptr inbounds [80 x i8], ptr %11, i64 0, i64 0
  %28 = load ptr, ptr %9, align 8, !tbaa !32
  %29 = load i32, ptr %10, align 4, !tbaa !4
  %30 = load ptr, ptr %15, align 8, !tbaa !32
  %31 = call i32 (ptr, i64, ptr, ...) @BIO_snprintf(ptr noundef %27, i64 noundef 80, ptr noundef @.str.47, ptr noundef %28, i32 noundef %29, ptr noundef %30)
  br label %37

32:                                               ; preds = %19
  %33 = getelementptr inbounds [80 x i8], ptr %11, i64 0, i64 0
  %34 = load ptr, ptr %9, align 8, !tbaa !32
  %35 = load ptr, ptr %15, align 8, !tbaa !32
  %36 = call i32 (ptr, i64, ptr, ...) @BIO_snprintf(ptr noundef %33, i64 noundef 80, ptr noundef @.str.48, ptr noundef %34, ptr noundef %35)
  br label %37

37:                                               ; preds = %32, %26
  %38 = getelementptr inbounds [80 x i8], ptr %12, i64 0, i64 0
  %39 = getelementptr inbounds [80 x i8], ptr %11, i64 0, i64 0
  %40 = load double, ptr %8, align 8, !tbaa !10
  %41 = call i32 (ptr, i64, ptr, ...) @BIO_snprintf(ptr noundef %38, i64 noundef 80, ptr noundef %39, double noundef %40)
  %42 = load i32, ptr @justprint, align 4, !tbaa !4
  %43 = icmp ne i32 %42, 0
  br i1 %43, label %44, label %56

44:                                               ; preds = %37
  %45 = load i32, ptr %14, align 4, !tbaa !4
  %46 = icmp eq i32 %45, 0
  br i1 %46, label %47, label %52

47:                                               ; preds = %44
  %48 = load i32, ptr %6, align 4, !tbaa !4
  %49 = load i32, ptr %7, align 4, !tbaa !4
  %50 = getelementptr inbounds [80 x i8], ptr %12, i64 0, i64 0
  %51 = call i32 (ptr, ...) @printf(ptr noundef @.str.49, i32 noundef %48, i32 noundef %49, ptr noundef %50)
  br label %55

52:                                               ; preds = %44
  %53 = getelementptr inbounds [80 x i8], ptr %12, i64 0, i64 0
  %54 = call i32 (ptr, ...) @printf(ptr noundef @.str.50, ptr noundef %53)
  br label %55

55:                                               ; preds = %52, %47
  br label %85

56:                                               ; preds = %37
  %57 = load i32, ptr %6, align 4, !tbaa !4
  %58 = sext i32 %57 to i64
  %59 = getelementptr inbounds [7 x [10 x [5 x ptr]]], ptr @fpexpected, i64 0, i64 %58
  %60 = load i32, ptr %7, align 4, !tbaa !4
  %61 = sext i32 %60 to i64
  %62 = getelementptr inbounds [10 x [5 x ptr]], ptr %59, i64 0, i64 %61
  %63 = load i32, ptr %14, align 4, !tbaa !4
  %64 = sext i32 %63 to i64
  %65 = getelementptr inbounds [5 x ptr], ptr %62, i64 0, i64 %64
  %66 = load ptr, ptr %65, align 8, !tbaa !32
  %67 = getelementptr inbounds [80 x i8], ptr %12, i64 0, i64 0
  %68 = call i32 @test_str_eq(ptr noundef @.str.23, i32 noundef 209, ptr noundef @.str.51, ptr noundef @.str.52, ptr noundef %66, ptr noundef %67)
  %69 = icmp ne i32 %68, 0
  br i1 %69, label %84, label %70

70:                                               ; preds = %56
  %71 = load i32, ptr %6, align 4, !tbaa !4
  %72 = getelementptr inbounds [80 x i8], ptr %11, i64 0, i64 0
  %73 = load i32, ptr %6, align 4, !tbaa !4
  %74 = sext i32 %73 to i64
  %75 = getelementptr inbounds [7 x [10 x [5 x ptr]]], ptr @fpexpected, i64 0, i64 %74
  %76 = load i32, ptr %7, align 4, !tbaa !4
  %77 = sext i32 %76 to i64
  %78 = getelementptr inbounds [10 x [5 x ptr]], ptr %75, i64 0, i64 %77
  %79 = load i32, ptr %14, align 4, !tbaa !4
  %80 = sext i32 %79 to i64
  %81 = getelementptr inbounds [5 x ptr], ptr %78, i64 0, i64 %80
  %82 = load ptr, ptr %81, align 8, !tbaa !32
  %83 = getelementptr inbounds [80 x i8], ptr %12, i64 0, i64 0
  call void (ptr, i32, ptr, ...) @test_info(ptr noundef @.str.23, i32 noundef 211, ptr noundef @.str.53, i32 noundef %71, ptr noundef %72, ptr noundef %82, ptr noundef %83)
  store i32 0, ptr %13, align 4, !tbaa !4
  br label %84

84:                                               ; preds = %70, %56
  br label %85

85:                                               ; preds = %84, %55
  call void @llvm.lifetime.end.p0(i64 8, ptr %15) #4
  br label %86

86:                                               ; preds = %85
  %87 = load i32, ptr %14, align 4, !tbaa !4
  %88 = add nsw i32 %87, 1
  store i32 %88, ptr %14, align 4, !tbaa !4
  br label %16, !llvm.loop !37

89:                                               ; preds = %16
  %90 = load i32, ptr @justprint, align 4, !tbaa !4
  %91 = icmp ne i32 %90, 0
  br i1 %91, label %92, label %94

92:                                               ; preds = %89
  %93 = call i32 (ptr, ...) @printf(ptr noundef @.str.54)
  br label %94

94:                                               ; preds = %92, %89
  %95 = load i32, ptr %13, align 4, !tbaa !4
  call void @llvm.lifetime.end.p0(i64 4, ptr %14) #4
  call void @llvm.lifetime.end.p0(i64 4, ptr %13) #4
  call void @llvm.lifetime.end.p0(i64 80, ptr %12) #4
  call void @llvm.lifetime.end.p0(i64 80, ptr %11) #4
  ret i32 %95
}